target datalayout = "e-m:e-p270:32:32-p271:32:32-p272:64:64-i64:64-i128:128-f80:128-n8:16:32:64-S128"
target triple = "x86_64-pc-linux-gnu"

%struct.UDataInfo = type { i16, i16, i8, i8, i8, i8, [4 x i8], [4 x i8], [4 x i8] }

; Function Attrs: mustprogress nounwind uwtable
define internal noundef signext i8 @_ZN6icu_77L21spoofDataIsAcceptableEPvPKcS2_PK9UDataInfo(ptr noundef %0, ptr noundef %1, ptr noundef %2, ptr noundef %3) #0 {
  %5 = alloca i8, align 1
  %6 = alloca ptr, align 8
  %7 = alloca ptr, align 8
  %8 = alloca ptr, align 8
  %9 = alloca ptr, align 8
  %10 = alloca ptr, align 8
  store ptr %0, ptr %6, align 8, !tbaa !10
  store ptr %1, ptr %7, align 8, !tbaa !47
  store ptr %2, ptr %8, align 8, !tbaa !47
  store ptr %3, ptr %9, align 8, !tbaa !10
  %11 = load ptr, ptr %9, align 8, !tbaa !10
  %12 = getelementptr inbounds nuw %struct.UDataInfo, ptr %11, i32 0, i32 0
  %13 = load i16, ptr %12, align 2, !tbaa !134
  %14 = zext i16 %13 to i32
  %15 = icmp sge i32 %14, 20
  br i1 %15, label %16, label %76

16:                                               ; preds = %4
  %17 = load ptr, ptr %9, align 8, !tbaa !10
  %18 = getelementptr inbounds nuw %struct.UDataInfo, ptr %17, i32 0, i32 2
  %19 = load i8, ptr %18, align 2, !tbaa !136
  %20 = zext i8 %19 to i32
  %21 = icmp eq i32 %20, 0
  br i1 %21, label %22, label %76

22:                                               ; preds = %16
  %23 = load ptr, ptr %9, align 8, !tbaa !10
  %24 = getelementptr inbounds nuw %struct.UDataInfo, ptr %23, i32 0, i32 3
  %25 = load i8, ptr %24, align 1, !tbaa !137
  %26 = zext i8 %25 to i32
  %27 = icmp eq i32 %26, 0
  br i1 %27, label %28, label %76

28:                                               ; preds = %22
  %29 = load ptr, ptr %9, align 8, !tbaa !10
  %30 = getelementptr inbounds nuw %struct.UDataInfo, ptr %29, i32 0, i32 6
  %31 = getelementptr inbounds [4 x i8], ptr %30, i64 0, i64 0
  %32 = load i8, ptr %31, align 2, !tbaa !46
  %33 = zext i8 %32 to i32
  %34 = icmp eq i32 %33, 67
  br i1 %34, label %35, label %76

35:                                               ; preds = %28
  %36 = load ptr, ptr %9, align 8, !tbaa !10
  %37 = getelementptr inbounds nuw %struct.UDataInfo, ptr %36, i32 0, i32 6
  %38 = getelementptr inbounds [4 x i8], ptr %37, i64 0, i64 1
  %39 = load i8, ptr %38, align 1, !tbaa !46
  %40 = zext i8 %39 to i32
  %41 = icmp eq i32 %40, 102
  br i1 %41, label %42, label %76

42:                                               ; preds = %35
  %43 = load ptr, ptr %9, align 8, !tbaa !10
  %44 = getelementptr inbounds nuw %struct.UDataInfo, ptr %43, i32 0, i32 6
  %45 = getelementptr inbounds [4 x i8], ptr %44, i64 0, i64 2
  %46 = load i8, ptr %45, align 2, !tbaa !46
  %47 = zext i8 %46 to i32
  %48 = icmp eq i32 %47, 117
  br i1 %48, label %49, label %76

49:                                               ; preds = %42
  %50 = load ptr, ptr %9, align 8, !tbaa !10
  %51 = getelementptr inbounds nuw %struct.UDataInfo, ptr %50, i32 0, i32 6
  %52 = getelementptr inbounds [4 x i8], ptr %51, i64 0, i64 3
  %53 = load i8, ptr %52, align 1, !tbaa !46
  %54 = zext i8 %53 to i32
  %55 = icmp eq i32 %54, 32
  br i1 %55, label %56, label %76

56:                                               ; preds = %49
  %57 = load ptr, ptr %9, align 8, !tbaa !10
  %58 = getelementptr inbounds nuw %struct.UDataInfo, ptr %57, i32 0, i32 7
  %59 = getelementptr inbounds [4 x i8], ptr %58, i64 0, i64 0
  %60 = load i8, ptr %59, align 2, !tbaa !46
  %61 = zext i8 %60 to i32
  %62 = icmp eq i32 %61, 2
  br i1 %62, label %63, label %76

63:                                               ; preds = %56
  call void @llvm.lifetime.start.p0(i64 8, ptr %10) #15
  %64 = load ptr, ptr %6, align 8, !tbaa !10
  store ptr %64, ptr %10, align 8, !tbaa !47
  %65 = load ptr, ptr %10, align 8, !tbaa !47
  %66 = icmp ne ptr %65, null
  br i1 %66, label %67, label %75

67:                                               ; preds = %63
  br label %68

68:                                               ; preds = %67
  %69 = load ptr, ptr %10, align 8, !tbaa !47
  %70 = load ptr, ptr %9, align 8, !tbaa !10
  %71 = getelementptr inbounds nuw %struct.UDataInfo, ptr %70, i32 0, i32 8
  %72 = getelementptr inbounds [4 x i8], ptr %71, i64 0, i64 0
  call void @llvm.memcpy.p0.p0.i64(ptr align 1 %69, ptr align 2 %72, i64 4, i1 false)
  br label %73

73:                                               ; preds = %68
  br label %74

74:                                               ; preds = %73
  br label %75

75:                                               ; preds = %74, %63
  store i8 1, ptr %5, align 1
  call void @llvm.lifetime.end.p0(i64 8, ptr %10) #15
  br label %77

76:                                               ; preds = %56, %49, %42, %35, %28, %22, %16, %4
  store i8 0, ptr %5, align 1
  br label %77

77:                                               ; preds = %76, %75
  %78 = load i8, ptr %5, align 1
  ret i8 %78
}