; Function Attrs: mustprogress nofree norecurse nosync nounwind willreturn memory(argmem: readwrite) uwtable
define internal noundef signext range(i8 0, 2) i8 @_ZN6icu_77L21spoofDataIsAcceptableEPvPKcS2_PK9UDataInfo(ptr noundef writeonly %0, ptr readnone captures(none) %1, ptr readnone captures(none) %2, ptr noundef readonly captures(none) %3) #13 {
  %5 = load i16, ptr %3, align 2, !tbaa !87
  %6 = icmp ugt i16 %5, 19
  br i1 %6, label %7, label %39

7:                                                ; preds = %4
  %8 = getelementptr inbounds nuw i8, ptr %3, i64 4
  %9 = load i8, ptr %8, align 2, !tbaa !89
  %10 = icmp eq i8 %9, 0
  br i1 %10, label %11, label %39

11:                                               ; preds = %7
  %12 = getelementptr inbounds nuw i8, ptr %3, i64 5
  %13 = load i8, ptr %12, align 1, !tbaa !90
  %14 = icmp eq i8 %13, 0
  br i1 %14, label %15, label %39

15:                                               ; preds = %11
  %16 = getelementptr inbounds nuw i8, ptr %3, i64 8
  %17 = load i8, ptr %16, align 2, !tbaa !38
  %18 = icmp eq i8 %17, 67
  br i1 %18, label %19, label %39

19:                                               ; preds = %15
  %20 = getelementptr inbounds nuw i8, ptr %3, i64 9
  %21 = load i8, ptr %20, align 1, !tbaa !38
  %22 = icmp eq i8 %21, 102
  br i1 %22, label %23, label %39

23:                                               ; preds = %19
  %24 = getelementptr inbounds nuw i8, ptr %3, i64 10
  %25 = load i8, ptr %24, align 2, !tbaa !38
  %26 = icmp eq i8 %25, 117
  br i1 %26, label %27, label %39

27:                                               ; preds = %23
  %28 = getelementptr inbounds nuw i8, ptr %3, i64 11
  %29 = load i8, ptr %28, align 1, !tbaa !38
  %30 = icmp eq i8 %29, 32
  br i1 %30, label %31, label %39

31:                                               ; preds = %27
  %32 = getelementptr inbounds nuw i8, ptr %3, i64 12
  %33 = load i8, ptr %32, align 2, !tbaa !38
  %34 = icmp eq i8 %33, 2
  br i1 %34, label %35, label %39

35:                                               ; preds = %31
  %.not = icmp eq ptr %0, null
  br i1 %.not, label %39, label %36

36:                                               ; preds = %35
  %37 = getelementptr inbounds nuw i8, ptr %3, i64 16
  %38 = load i32, ptr %37, align 2
  store i32 %38, ptr %0, align 1
  br label %39

39:                                               ; preds = %4, %7, %11, %15, %19, %23, %27, %31, %35, %36
  %.0 = phi i8 [ 1, %36 ], [ 1, %35 ], [ 0, %31 ], [ 0, %27 ], [ 0, %23 ], [ 0, %19 ], [ 0, %15 ], [ 0, %11 ], [ 0, %7 ], [ 0, %4 ]
  ret i8 %.0
}